target datalayout = "e-m:e-p270:32:32-p271:32:32-p272:64:64-i64:64-i128:128-f80:128-n8:16:32:64-S128"
target triple = "x86_64-pc-linux-gnu"

@BF_atoi64 = internal constant [96 x i8] c"@@@@@@@@@@@@@@\00\016789:;<=>?@@@@@@@\02\03\04\05\06\07\08\09\0A\0B\0C\0D\0E\0F\10\11\12\13\14\15\16\17\18\19\1A\1B@@@@@@\1C\1D\1E\1F !\22#$%&'()*+,-./012345@@@@@", align 16

; Function Attrs: nounwind uwtable
define internal i32 @BF_decode(ptr noundef %0, ptr noundef %1, i32 noundef %2) #0 {
  %4 = alloca i32, align 4
  %5 = alloca ptr, align 8
  %6 = alloca ptr, align 8
  %7 = alloca i32, align 4
  %8 = alloca ptr, align 8
  %9 = alloca ptr, align 8
  %10 = alloca ptr, align 8
  %11 = alloca i32, align 4
  %12 = alloca i32, align 4
  %13 = alloca i32, align 4
  %14 = alloca i32, align 4
  %15 = alloca i32, align 4
  store ptr %0, ptr %5, align 8
  store ptr %1, ptr %6, align 8
  store i32 %2, ptr %7, align 4
  %16 = load ptr, ptr %5, align 8
  store ptr %16, ptr %8, align 8
  %17 = load ptr, ptr %8, align 8
  %18 = load i32, ptr %7, align 4
  %19 = sext i32 %18 to i64
  %20 = getelementptr inbounds i8, ptr %17, i64 %19
  store ptr %20, ptr %9, align 8
  %21 = load ptr, ptr %6, align 8
  store ptr %21, ptr %10, align 8
  br label %22

22:                                               ; preds = %136, %3
  %23 = load ptr, ptr %10, align 8
  %24 = getelementptr inbounds i8, ptr %23, i32 1
  store ptr %24, ptr %10, align 8
  %25 = load i8, ptr %23, align 1
  %26 = zext i8 %25 to i32
  store i32 %26, ptr %11, align 4
  %27 = load i32, ptr %11, align 4
  %28 = sub i32 %27, 32
  store i32 %28, ptr %11, align 4
  %29 = icmp uge i32 %28, 96
  br i1 %29, label %30, label %31

30:                                               ; preds = %22
  store i32 -1, ptr %4, align 4
  br label %141

31:                                               ; preds = %22
  %32 = load i32, ptr %11, align 4
  %33 = zext i32 %32 to i64
  %34 = getelementptr inbounds [96 x i8], ptr @BF_atoi64, i64 0, i64 %33
  %35 = load i8, ptr %34, align 1
  %36 = zext i8 %35 to i32
  store i32 %36, ptr %11, align 4
  %37 = load i32, ptr %11, align 4
  %38 = icmp ugt i32 %37, 63
  br i1 %38, label %39, label %40

39:                                               ; preds = %31
  store i32 -1, ptr %4, align 4
  br label %141

40:                                               ; preds = %31
  %41 = load i32, ptr %11, align 4
  store i32 %41, ptr %12, align 4
  %42 = load ptr, ptr %10, align 8
  %43 = getelementptr inbounds i8, ptr %42, i32 1
  store ptr %43, ptr %10, align 8
  %44 = load i8, ptr %42, align 1
  %45 = zext i8 %44 to i32
  store i32 %45, ptr %11, align 4
  %46 = load i32, ptr %11, align 4
  %47 = sub i32 %46, 32
  store i32 %47, ptr %11, align 4
  %48 = icmp uge i32 %47, 96
  br i1 %48, label %49, label %50

49:                                               ; preds = %40
  store i32 -1, ptr %4, align 4
  br label %141

50:                                               ; preds = %40
  %51 = load i32, ptr %11, align 4
  %52 = zext i32 %51 to i64
  %53 = getelementptr inbounds [96 x i8], ptr @BF_atoi64, i64 0, i64 %52
  %54 = load i8, ptr %53, align 1
  %55 = zext i8 %54 to i32
  store i32 %55, ptr %11, align 4
  %56 = load i32, ptr %11, align 4
  %57 = icmp ugt i32 %56, 63
  br i1 %57, label %58, label %59

58:                                               ; preds = %50
  store i32 -1, ptr %4, align 4
  br label %141

59:                                               ; preds = %50
  %60 = load i32, ptr %11, align 4
  store i32 %60, ptr %13, align 4
  %61 = load i32, ptr %12, align 4
  %62 = shl i32 %61, 2
  %63 = load i32, ptr %13, align 4
  %64 = and i32 %63, 48
  %65 = lshr i32 %64, 4
  %66 = or i32 %62, %65
  %67 = trunc i32 %66 to i8
  %68 = load ptr, ptr %8, align 8
  %69 = getelementptr inbounds i8, ptr %68, i32 1
  store ptr %69, ptr %8, align 8
  store i8 %67, ptr %68, align 1
  %70 = load ptr, ptr %8, align 8
  %71 = load ptr, ptr %9, align 8
  %72 = icmp uge ptr %70, %71
  br i1 %72, label %73, label %74

73:                                               ; preds = %59
  br label %140

74:                                               ; preds = %59
  %75 = load ptr, ptr %10, align 8
  %76 = getelementptr inbounds i8, ptr %75, i32 1
  store ptr %76, ptr %10, align 8
  %77 = load i8, ptr %75, align 1
  %78 = zext i8 %77 to i32
  store i32 %78, ptr %11, align 4
  %79 = load i32, ptr %11, align 4
  %80 = sub i32 %79, 32
  store i32 %80, ptr %11, align 4
  %81 = icmp uge i32 %80, 96
  br i1 %81, label %82, label %83

82:                                               ; preds = %74
  store i32 -1, ptr %4, align 4
  br label %141

83:                                               ; preds = %74
  %84 = load i32, ptr %11, align 4
  %85 = zext i32 %84 to i64
  %86 = getelementptr inbounds [96 x i8], ptr @BF_atoi64, i64 0, i64 %85
  %87 = load i8, ptr %86, align 1
  %88 = zext i8 %87 to i32
  store i32 %88, ptr %11, align 4
  %89 = load i32, ptr %11, align 4
  %90 = icmp ugt i32 %89, 63
  br i1 %90, label %91, label %92

91:                                               ; preds = %83
  store i32 -1, ptr %4, align 4
  br label %141

92:                                               ; preds = %83
  %93 = load i32, ptr %11, align 4
  store i32 %93, ptr %14, align 4
  %94 = load i32, ptr %13, align 4
  %95 = and i32 %94, 15
  %96 = shl i32 %95, 4
  %97 = load i32, ptr %14, align 4
  %98 = and i32 %97, 60
  %99 = lshr i32 %98, 2
  %100 = or i32 %96, %99
  %101 = trunc i32 %100 to i8
  %102 = load ptr, ptr %8, align 8
  %103 = getelementptr inbounds i8, ptr %102, i32 1
  store ptr %103, ptr %8, align 8
  store i8 %101, ptr %102, align 1
  %104 = load ptr, ptr %8, align 8
  %105 = load ptr, ptr %9, align 8
  %106 = icmp uge ptr %104, %105
  br i1 %106, label %107, label %108

107:                                              ; preds = %92
  br label %140

108:                                              ; preds = %92
  %109 = load ptr, ptr %10, align 8
  %110 = getelementptr inbounds i8, ptr %109, i32 1
  store ptr %110, ptr %10, align 8
  %111 = load i8, ptr %109, align 1
  %112 = zext i8 %111 to i32
  store i32 %112, ptr %11, align 4
  %113 = load i32, ptr %11, align 4
  %114 = sub i32 %113, 32
  store i32 %114, ptr %11, align 4
  %115 = icmp uge i32 %114, 96
  br i1 %115, label %116, label %117

116:                                              ; preds = %108
  store i32 -1, ptr %4, align 4
  br label %141

117:                                              ; preds = %108
  %118 = load i32, ptr %11, align 4
  %119 = zext i32 %118 to i64
  %120 = getelementptr inbounds [96 x i8], ptr @BF_atoi64, i64 0, i64 %119
  %121 = load i8, ptr %120, align 1
  %122 = zext i8 %121 to i32
  store i32 %122, ptr %11, align 4
  %123 = load i32, ptr %11, align 4
  %124 = icmp ugt i32 %123, 63
  br i1 %124, label %125, label %126

125:                                              ; preds = %117
  store i32 -1, ptr %4, align 4
  br label %141

126:                                              ; preds = %117
  %127 = load i32, ptr %11, align 4
  store i32 %127, ptr %15, align 4
  %128 = load i32, ptr %14, align 4
  %129 = and i32 %128, 3
  %130 = shl i32 %129, 6
  %131 = load i32, ptr %15, align 4
  %132 = or i32 %130, %131
  %133 = trunc i32 %132 to i8
  %134 = load ptr, ptr %8, align 8
  %135 = getelementptr inbounds i8, ptr %134, i32 1
  store ptr %135, ptr %8, align 8
  store i8 %133, ptr %134, align 1
  br label %136

136:                                              ; preds = %126
  %137 = load ptr, ptr %8, align 8
  %138 = load ptr, ptr %9, align 8
  %139 = icmp ult ptr %137, %138
  br i1 %139, label %22, label %140

140:                                              ; preds = %136, %107, %73
  store i32 0, ptr %4, align 4
  br label %141

141:                                              ; preds = %140, %125, %116, %91, %82, %58, %49, %39, %30
  %142 = load i32, ptr %4, align 4
  ret i32 %142
}