; Function Attrs: nofree norecurse nosync nounwind memory(read, argmem: readwrite, inaccessiblemem: none) uwtable
define internal fastcc noundef i32 @BF_decode(ptr nocapture noundef writeonly %0, ptr nocapture noundef readonly %1) unnamed_addr #5 {
  %3 = load i8, ptr %1, align 1
  %4 = zext i8 %3 to i32
  %5 = add nsw i32 %4, -32
  %6 = icmp ugt i32 %5, 95
  br i1 %6, label %split, label %.lr.ph

.lr.ph:                                           ; preds = %2, %53
  %7 = phi i32 [ %58, %53 ], [ %5, %2 ]
  %.039.idx2 = phi i64 [ %.add53, %53 ], [ 0, %2 ]
  %.0401 = phi ptr [ %43, %53 ], [ %1, %2 ]
  %.039.ptr3 = getelementptr i8, ptr %0, i64 %.039.idx2
  %8 = zext nneg i32 %7 to i64
  %9 = getelementptr inbounds [96 x i8], ptr @BF_atoi64, i64 0, i64 %8
  %10 = load i8, ptr %9, align 1
  %11 = icmp ugt i8 %10, 63
  br i1 %11, label %split, label %12

12:                                               ; preds = %.lr.ph
  %13 = getelementptr inbounds i8, ptr %.0401, i64 1
  %14 = getelementptr inbounds i8, ptr %.0401, i64 2
  %15 = load i8, ptr %13, align 1
  %16 = zext i8 %15 to i32
  %17 = add nsw i32 %16, -32
  %18 = icmp ugt i32 %17, 95
  br i1 %18, label %split, label %19

19:                                               ; preds = %12
  %20 = zext nneg i32 %17 to i64
  %21 = getelementptr inbounds [96 x i8], ptr @BF_atoi64, i64 0, i64 %20
  %22 = load i8, ptr %21, align 1
  %23 = icmp ugt i8 %22, 63
  br i1 %23, label %split, label %24

24:                                               ; preds = %19
  %25 = shl nuw i8 %10, 2
  %26 = lshr i8 %22, 4
  %27 = or disjoint i8 %26, %25
  %.ptr = getelementptr i8, ptr %.039.ptr3, i64 1
  store i8 %27, ptr %.039.ptr3, align 1
  %.not = icmp ult i64 %.039.idx2, 15
  br i1 %.not, label %28, label %split

28:                                               ; preds = %24
  %29 = getelementptr inbounds i8, ptr %.0401, i64 3
  %30 = load i8, ptr %14, align 1
  %31 = zext i8 %30 to i32
  %32 = add nsw i32 %31, -32
  %33 = icmp ugt i32 %32, 95
  br i1 %33, label %split, label %34

34:                                               ; preds = %28
  %35 = zext nneg i32 %32 to i64
  %36 = getelementptr inbounds [96 x i8], ptr @BF_atoi64, i64 0, i64 %35
  %37 = load i8, ptr %36, align 1
  %38 = icmp ugt i8 %37, 63
  br i1 %38, label %split, label %39

39:                                               ; preds = %34
  %40 = shl i8 %22, 4
  %41 = lshr i8 %37, 2
  %42 = or disjoint i8 %41, %40
  %.ptr54 = getelementptr i8, ptr %.039.ptr3, i64 2
  store i8 %42, ptr %.ptr, align 1
  %43 = getelementptr inbounds i8, ptr %.0401, i64 4
  %44 = load i8, ptr %29, align 1
  %45 = zext i8 %44 to i32
  %46 = add nsw i32 %45, -32
  %47 = icmp ugt i32 %46, 95
  br i1 %47, label %split, label %48

48:                                               ; preds = %39
  %49 = zext nneg i32 %46 to i64
  %50 = getelementptr inbounds [96 x i8], ptr @BF_atoi64, i64 0, i64 %49
  %51 = load i8, ptr %50, align 1
  %52 = icmp ugt i8 %51, 63
  br i1 %52, label %split, label %53

53:                                               ; preds = %48
  %54 = shl i8 %37, 6
  %55 = or disjoint i8 %51, %54
  %.add53 = add nuw nsw i64 %.039.idx2, 3
  store i8 %55, ptr %.ptr54, align 1
  %56 = load i8, ptr %43, align 1
  %57 = zext i8 %56 to i32
  %58 = add nsw i32 %57, -32
  %59 = icmp ugt i32 %58, 95
  br i1 %59, label %split, label %.lr.ph

split:                                            ; preds = %53, %.lr.ph, %12, %19, %28, %34, %39, %48, %24, %2
  %.0.ph.ph = phi i32 [ -1, %2 ], [ -1, %53 ], [ -1, %.lr.ph ], [ -1, %12 ], [ -1, %19 ], [ -1, %28 ], [ -1, %34 ], [ -1, %39 ], [ -1, %48 ], [ 0, %24 ]
  ret i32 %.0.ph.ph
}